; Function Attrs: mustprogress nounwind uwtable
define internal fastcc void @_ZZN9grpc_core12_GLOBAL__N_122XdsServerConfigFetcher15ListenerWatcher23FilterChainMatchManager13StartRdsWatchENS_13RefCountedPtrIS2_EEEN14WatcherToStartD2Ev(ptr noundef nonnull align 8 dereferenceable(40) %this) unnamed_addr #7 align 2 personality ptr @__gxx_personality_v0 {
entry:
  %watcher = getelementptr inbounds i8, ptr %this, i64 32
  %watcher.val = load ptr, ptr %watcher, align 8
  %cmp.not.i = icmp eq ptr %watcher.val, null
  br i1 %cmp.not.i, label %_ZN9grpc_core13RefCountedPtrINS_12_GLOBAL__N_122XdsServerConfigFetcher15ListenerWatcher23FilterChainMatchManager18RouteConfigWatcherEED2Ev.exit, label %if.then.i

if.then.i:                                        ; preds = %entry
  %refs_.i.i = getelementptr inbounds i8, ptr %watcher.val, i64 8
  %0 = atomicrmw sub ptr %refs_.i.i, i64 1 acq_rel, align 8
  %cmp.i.i.i = icmp eq i64 %0, 1
  br i1 %cmp.i.i.i, label %if.then.i.i, label %_ZN9grpc_core13RefCountedPtrINS_12_GLOBAL__N_122XdsServerConfigFetcher15ListenerWatcher23FilterChainMatchManager18RouteConfigWatcherEED2Ev.exit

if.then.i.i:                                      ; preds = %if.then.i
  %vtable.i.i.i = load ptr, ptr %watcher.val, align 8
  %vfn.i.i.i = getelementptr inbounds i8, ptr %vtable.i.i.i, i64 8
  %1 = load ptr, ptr %vfn.i.i.i, align 8
  tail call void %1(ptr noundef nonnull align 8 dereferenceable(16) %watcher.val) #26
  br label %_ZN9grpc_core13RefCountedPtrINS_12_GLOBAL__N_122XdsServerConfigFetcher15ListenerWatcher23FilterChainMatchManager18RouteConfigWatcherEED2Ev.exit

_ZN9grpc_core13RefCountedPtrINS_12_GLOBAL__N_122XdsServerConfigFetcher15ListenerWatcher23FilterChainMatchManager18RouteConfigWatcherEED2Ev.exit: ; preds = %entry, %if.then.i, %if.then.i.i
  tail call void @_ZNSt7__cxx1112basic_stringIcSt11char_traitsIcESaIcEED1Ev(ptr noundef nonnull align 8 dereferenceable(32) %this) #26
  ret void
}